; Function Attrs: mustprogress nofree norecurse nosync nounwind willreturn memory(read, inaccessiblemem: none) uwtable
define dso_local noundef i32 @_ZNK5clang12FunctionDecl21getOverloadedOperatorEv(ptr nocapture noundef nonnull readonly align 8 dereferenceable(168) %0) local_unnamed_addr #9 align 2 {
  %2 = getelementptr inbounds nuw i8, ptr %0, i64 40
  %.sroa.0.0.copyload.i = load i64, ptr %2, align 8
  %3 = and i64 %.sroa.0.0.copyload.i, 7
  %or.cond = icmp eq i64 %3, 6
  br i1 %or.cond, label %4, label %_ZNK5clang15DeclarationName24getCXXOverloadedOperatorEv.exit

4:                                                ; preds = %1
  %5 = and i64 %.sroa.0.0.copyload.i, -8
  %6 = inttoptr i64 %5 to ptr
  %7 = load i32, ptr %6, align 8
  br label %_ZNK5clang15DeclarationName24getCXXOverloadedOperatorEv.exit

_ZNK5clang15DeclarationName24getCXXOverloadedOperatorEv.exit: ; preds = %1, %4
  %.0 = phi i32 [ %7, %4 ], [ 0, %1 ]
  ret i32 %.0
}